target datalayout = "e-m:e-p270:32:32-p271:32:32-p272:64:64-i64:64-i128:128-f80:128-n8:16:32:64-S128"
target triple = "x86_64-pc-linux-gnu"

%class.btTranslationalLimitMotor = type { %class.btVector3, %class.btVector3, %class.btVector3, float, float, float, %class.btVector3, %class.btVector3, %class.btVector3, [3 x i8], %class.btVector3, %class.btVector3, %class.btVector3, %class.btVector3, [3 x i32] }
%class.btVector3 = type { [4 x float] }

; Function Attrs: inlinehint mustprogress nounwind uwtable
define linkonce_odr dso_local noundef ptr @_ZN9btVector3cvPfEv(ptr noundef nonnull align 4 dereferenceable(16) %0) #5 comdat align 2 {
  %2 = alloca ptr, align 8
  store ptr %0, ptr %2, align 8, !tbaa !66
  %3 = load ptr, ptr %2, align 8
  %4 = getelementptr inbounds nuw %class.btVector3, ptr %3, i32 0, i32 0
  %5 = getelementptr inbounds [4 x float], ptr %4, i64 0, i64 0
  ret ptr %5
}

; Function Attrs: mustprogress uwtable
define dso_local noundef i32 @_ZN25btTranslationalLimitMotor14testLimitValueEif(ptr noundef nonnull align 4 dereferenceable(188) %0, i32 noundef %1, float noundef %2) #2 align 2 {
  %4 = alloca i32, align 4
  %5 = alloca ptr, align 8
  %6 = alloca i32, align 4
  %7 = alloca float, align 4
  %8 = alloca float, align 4
  %9 = alloca float, align 4
  %10 = alloca i32, align 4
  store ptr %0, ptr %5, align 8, !tbaa !40
  store i32 %1, ptr %6, align 4, !tbaa !9
  store float %2, ptr %7, align 4, !tbaa !42
  %11 = load ptr, ptr %5, align 8
  call void @llvm.lifetime.start.p0(i64 4, ptr %8) #13
  %12 = getelementptr inbounds nuw %class.btTranslationalLimitMotor, ptr %11, i32 0, i32 0
  %13 = call noundef ptr @_ZN9btVector3cvPfEv(ptr noundef nonnull align 4 dereferenceable(16) %12)
  %14 = load i32, ptr %6, align 4, !tbaa !9
  %15 = sext i32 %14 to i64
  %16 = getelementptr inbounds float, ptr %13, i64 %15
  %17 = load float, ptr %16, align 4, !tbaa !42
  store float %17, ptr %8, align 4, !tbaa !42
  call void @llvm.lifetime.start.p0(i64 4, ptr %9) #13
  %18 = getelementptr inbounds nuw %class.btTranslationalLimitMotor, ptr %11, i32 0, i32 1
  %19 = call noundef ptr @_ZN9btVector3cvPfEv(ptr noundef nonnull align 4 dereferenceable(16) %18)
  %20 = load i32, ptr %6, align 4, !tbaa !9
  %21 = sext i32 %20 to i64
  %22 = getelementptr inbounds float, ptr %19, i64 %21
  %23 = load float, ptr %22, align 4, !tbaa !42
  store float %23, ptr %9, align 4, !tbaa !42
  %24 = load float, ptr %8, align 4, !tbaa !42
  %25 = load float, ptr %9, align 4, !tbaa !42
  %26 = fcmp ogt float %24, %25
  br i1 %26, label %27, label %37

27:                                               ; preds = %3
  %28 = getelementptr inbounds nuw %class.btTranslationalLimitMotor, ptr %11, i32 0, i32 14
  %29 = load i32, ptr %6, align 4, !tbaa !9
  %30 = sext i32 %29 to i64
  %31 = getelementptr inbounds [3 x i32], ptr %28, i64 0, i64 %30
  store i32 0, ptr %31, align 4, !tbaa !9
  %32 = getelementptr inbounds nuw %class.btTranslationalLimitMotor, ptr %11, i32 0, i32 12
  %33 = call noundef ptr @_ZN9btVector3cvPfEv(ptr noundef nonnull align 4 dereferenceable(16) %32)
  %34 = load i32, ptr %6, align 4, !tbaa !9
  %35 = sext i32 %34 to i64
  %36 = getelementptr inbounds float, ptr %33, i64 %35
  store float 0.000000e+00, ptr %36, align 4, !tbaa !42
  store i32 0, ptr %4, align 4
  store i32 1, ptr %10, align 4
  br label %82

37:                                               ; preds = %3
  %38 = load float, ptr %7, align 4, !tbaa !42
  %39 = load float, ptr %8, align 4, !tbaa !42
  %40 = fcmp olt float %38, %39
  br i1 %40, label %41, label %54

41:                                               ; preds = %37
  %42 = getelementptr inbounds nuw %class.btTranslationalLimitMotor, ptr %11, i32 0, i32 14
  %43 = load i32, ptr %6, align 4, !tbaa !9
  %44 = sext i32 %43 to i64
  %45 = getelementptr inbounds [3 x i32], ptr %42, i64 0, i64 %44
  store i32 2, ptr %45, align 4, !tbaa !9
  %46 = load float, ptr %7, align 4, !tbaa !42
  %47 = load float, ptr %8, align 4, !tbaa !42
  %48 = fsub float %46, %47
  %49 = getelementptr inbounds nuw %class.btTranslationalLimitMotor, ptr %11, i32 0, i32 12
  %50 = call noundef ptr @_ZN9btVector3cvPfEv(ptr noundef nonnull align 4 dereferenceable(16) %49)
  %51 = load i32, ptr %6, align 4, !tbaa !9
  %52 = sext i32 %51 to i64
  %53 = getelementptr inbounds float, ptr %50, i64 %52
  store float %48, ptr %53, align 4, !tbaa !42
  store i32 2, ptr %4, align 4
  store i32 1, ptr %10, align 4
  br label %82

54:                                               ; preds = %37
  %55 = load float, ptr %7, align 4, !tbaa !42
  %56 = load float, ptr %9, align 4, !tbaa !42
  %57 = fcmp ogt float %55, %56
  br i1 %57, label %58, label %71

58:                                               ; preds = %54
  %59 = getelementptr inbounds nuw %class.btTranslationalLimitMotor, ptr %11, i32 0, i32 14
  %60 = load i32, ptr %6, align 4, !tbaa !9
  %61 = sext i32 %60 to i64
  %62 = getelementptr inbounds [3 x i32], ptr %59, i64 0, i64 %61
  store i32 1, ptr %62, align 4, !tbaa !9
  %63 = load float, ptr %7, align 4, !tbaa !42
  %64 = load float, ptr %9, align 4, !tbaa !42
  %65 = fsub float %63, %64
  %66 = getelementptr inbounds nuw %class.btTranslationalLimitMotor, ptr %11, i32 0, i32 12
  %67 = call noundef ptr @_ZN9btVector3cvPfEv(ptr noundef nonnull align 4 dereferenceable(16) %66)
  %68 = load i32, ptr %6, align 4, !tbaa !9
  %69 = sext i32 %68 to i64
  %70 = getelementptr inbounds float, ptr %67, i64 %69
  store float %65, ptr %70, align 4, !tbaa !42
  store i32 1, ptr %4, align 4
  store i32 1, ptr %10, align 4
  br label %82

71:                                               ; preds = %54
  br label %72

72:                                               ; preds = %71
  %73 = getelementptr inbounds nuw %class.btTranslationalLimitMotor, ptr %11, i32 0, i32 14
  %74 = load i32, ptr %6, align 4, !tbaa !9
  %75 = sext i32 %74 to i64
  %76 = getelementptr inbounds [3 x i32], ptr %73, i64 0, i64 %75
  store i32 0, ptr %76, align 4, !tbaa !9
  %77 = getelementptr inbounds nuw %class.btTranslationalLimitMotor, ptr %11, i32 0, i32 12
  %78 = call noundef ptr @_ZN9btVector3cvPfEv(ptr noundef nonnull align 4 dereferenceable(16) %77)
  %79 = load i32, ptr %6, align 4, !tbaa !9
  %80 = sext i32 %79 to i64
  %81 = getelementptr inbounds float, ptr %78, i64 %80
  store float 0.000000e+00, ptr %81, align 4, !tbaa !42
  store i32 0, ptr %4, align 4
  store i32 1, ptr %10, align 4
  br label %82

82:                                               ; preds = %72, %58, %41, %27
  call void @llvm.lifetime.end.p0(i64 4, ptr %9) #13
  call void @llvm.lifetime.end.p0(i64 4, ptr %8) #13
  %83 = load i32, ptr %4, align 4
  ret i32 %83
}