; Function Attrs: mustprogress nofree norecurse nosync nounwind willreturn memory(argmem: readwrite) uwtable
define dso_local noundef range(i32 0, 3) i32 @_ZN25btTranslationalLimitMotor14testLimitValueEif(ptr noundef nonnull align 4 captures(none) dereferenceable(188) %0, i32 noundef %1, float noundef %2) local_unnamed_addr #7 align 2 {
  %4 = sext i32 %1 to i64
  %5 = getelementptr inbounds float, ptr %0, i64 %4
  %6 = load float, ptr %5, align 4, !tbaa !10
  %7 = getelementptr inbounds nuw i8, ptr %0, i64 16
  %8 = getelementptr inbounds float, ptr %7, i64 %4
  %9 = load float, ptr %8, align 4, !tbaa !10
  %10 = fcmp ogt float %6, %9
  br i1 %10, label %11, label %14

11:                                               ; preds = %3
  %12 = getelementptr inbounds nuw i8, ptr %0, i64 176
  %13 = getelementptr inbounds [3 x i32], ptr %12, i64 0, i64 %4
  store i32 0, ptr %13, align 4, !tbaa !56
  br label %27

14:                                               ; preds = %3
  %15 = fcmp olt float %2, %6
  br i1 %15, label %16, label %20

16:                                               ; preds = %14
  %17 = getelementptr inbounds nuw i8, ptr %0, i64 176
  %18 = getelementptr inbounds [3 x i32], ptr %17, i64 0, i64 %4
  store i32 2, ptr %18, align 4, !tbaa !56
  %19 = fsub float %2, %6
  br label %27

20:                                               ; preds = %14
  %21 = fcmp ogt float %2, %9
  %22 = getelementptr inbounds nuw i8, ptr %0, i64 176
  %23 = getelementptr inbounds [3 x i32], ptr %22, i64 0, i64 %4
  br i1 %21, label %24, label %26

24:                                               ; preds = %20
  store i32 1, ptr %23, align 4, !tbaa !56
  %25 = fsub float %2, %9
  br label %27

26:                                               ; preds = %20
  store i32 0, ptr %23, align 4, !tbaa !56
  br label %27

27:                                               ; preds = %26, %24, %16, %11
  %.sink = phi float [ 0.000000e+00, %26 ], [ %25, %24 ], [ %19, %16 ], [ 0.000000e+00, %11 ]
  %.0 = phi i32 [ 0, %26 ], [ 1, %24 ], [ 2, %16 ], [ 0, %11 ]
  %28 = getelementptr inbounds nuw i8, ptr %0, i64 144
  %29 = getelementptr inbounds float, ptr %28, i64 %4
  store float %.sink, ptr %29, align 4, !tbaa !10
  ret i32 %.0
}